target datalayout = "e-m:e-p270:32:32-p271:32:32-p272:64:64-i64:64-i128:128-f80:128-n8:16:32:64-S128"
target triple = "x86_64-pc-linux-gnu"

; Function Attrs: mustprogress nounwind uwtable
define hidden noundef zeroext i1 @_Z21is_smt2_quoted_symbolPKc(ptr noundef %0) #4 {
  %2 = alloca i1, align 1
  %3 = alloca ptr, align 8
  %4 = alloca i32, align 4
  %5 = alloca i32, align 4
  %6 = alloca i32, align 4
  %7 = alloca i32, align 4
  store ptr %0, ptr %3, align 8, !tbaa !6
  %8 = load ptr, ptr %3, align 8, !tbaa !6
  %9 = icmp eq ptr %8, null
  br i1 %9, label %10, label %11

10:                                               ; preds = %1
  store i1 false, ptr %2, align 1
  br label %133

11:                                               ; preds = %1
  %12 = load ptr, ptr %3, align 8, !tbaa !6
  %13 = getelementptr inbounds i8, ptr %12, i64 0
  %14 = load i8, ptr %13, align 1, !tbaa !3
  %15 = sext i8 %14 to i32
  %16 = icmp sle i32 48, %15
  br i1 %16, label %17, label %24

17:                                               ; preds = %11
  %18 = load ptr, ptr %3, align 8, !tbaa !6
  %19 = getelementptr inbounds i8, ptr %18, i64 0
  %20 = load i8, ptr %19, align 1, !tbaa !3
  %21 = sext i8 %20 to i32
  %22 = icmp sle i32 %21, 57
  br i1 %22, label %23, label %24

23:                                               ; preds = %17
  store i1 true, ptr %2, align 1
  br label %133

24:                                               ; preds = %17, %11
  call void @llvm.lifetime.start.p0(i64 4, ptr %4) #3
  %25 = load ptr, ptr %3, align 8, !tbaa !6
  %26 = call i64 @strlen(ptr noundef %25) #18
  %27 = trunc i64 %26 to i32
  store i32 %27, ptr %4, align 4, !tbaa !9
  %28 = load i32, ptr %4, align 4, !tbaa !9
  %29 = icmp uge i32 %28, 2
  br i1 %29, label %30, label %111

30:                                               ; preds = %24
  %31 = load ptr, ptr %3, align 8, !tbaa !6
  %32 = getelementptr inbounds i8, ptr %31, i64 0
  %33 = load i8, ptr %32, align 1, !tbaa !3
  %34 = sext i8 %33 to i32
  %35 = icmp eq i32 %34, 124
  br i1 %35, label %36, label %111

36:                                               ; preds = %30
  %37 = load ptr, ptr %3, align 8, !tbaa !6
  %38 = load i32, ptr %4, align 4, !tbaa !9
  %39 = sub i32 %38, 1
  %40 = zext i32 %39 to i64
  %41 = getelementptr inbounds nuw i8, ptr %37, i64 %40
  %42 = load i8, ptr %41, align 1, !tbaa !3
  %43 = sext i8 %42 to i32
  %44 = icmp eq i32 %43, 124
  br i1 %44, label %45, label %111

45:                                               ; preds = %36
  call void @llvm.lifetime.start.p0(i64 4, ptr %5) #3
  store i32 1, ptr %5, align 4, !tbaa !9
  br label %46

46:                                               ; preds = %105, %45
  %47 = load i32, ptr %5, align 4, !tbaa !9
  %48 = add i32 %47, 1
  %49 = load i32, ptr %4, align 4, !tbaa !9
  %50 = icmp ult i32 %48, %49
  br i1 %50, label %52, label %51

51:                                               ; preds = %46
  store i32 2, ptr %6, align 4
  br label %108

52:                                               ; preds = %46
  %53 = load ptr, ptr %3, align 8, !tbaa !6
  %54 = load i32, ptr %5, align 4, !tbaa !9
  %55 = zext i32 %54 to i64
  %56 = getelementptr inbounds nuw i8, ptr %53, i64 %55
  %57 = load i8, ptr %56, align 1, !tbaa !3
  %58 = sext i8 %57 to i32
  %59 = icmp eq i32 %58, 92
  br i1 %59, label %60, label %86

60:                                               ; preds = %52
  %61 = load i32, ptr %5, align 4, !tbaa !9
  %62 = add i32 %61, 2
  %63 = load i32, ptr %4, align 4, !tbaa !9
  %64 = icmp ult i32 %62, %63
  br i1 %64, label %65, label %86

65:                                               ; preds = %60
  %66 = load ptr, ptr %3, align 8, !tbaa !6
  %67 = load i32, ptr %5, align 4, !tbaa !9
  %68 = add i32 %67, 1
  %69 = zext i32 %68 to i64
  %70 = getelementptr inbounds nuw i8, ptr %66, i64 %69
  %71 = load i8, ptr %70, align 1, !tbaa !3
  %72 = sext i8 %71 to i32
  %73 = icmp eq i32 %72, 92
  br i1 %73, label %83, label %74

74:                                               ; preds = %65
  %75 = load ptr, ptr %3, align 8, !tbaa !6
  %76 = load i32, ptr %5, align 4, !tbaa !9
  %77 = add i32 %76, 1
  %78 = zext i32 %77 to i64
  %79 = getelementptr inbounds nuw i8, ptr %75, i64 %78
  %80 = load i8, ptr %79, align 1, !tbaa !3
  %81 = sext i8 %80 to i32
  %82 = icmp eq i32 %81, 124
  br i1 %82, label %83, label %86

83:                                               ; preds = %74, %65
  %84 = load i32, ptr %5, align 4, !tbaa !9
  %85 = add i32 %84, 1
  store i32 %85, ptr %5, align 4, !tbaa !9
  br label %104

86:                                               ; preds = %74, %60, %52
  %87 = load ptr, ptr %3, align 8, !tbaa !6
  %88 = load i32, ptr %5, align 4, !tbaa !9
  %89 = zext i32 %88 to i64
  %90 = getelementptr inbounds nuw i8, ptr %87, i64 %89
  %91 = load i8, ptr %90, align 1, !tbaa !3
  %92 = sext i8 %91 to i32
  %93 = icmp eq i32 %92, 92
  br i1 %93, label %102, label %94

94:                                               ; preds = %86
  %95 = load ptr, ptr %3, align 8, !tbaa !6
  %96 = load i32, ptr %5, align 4, !tbaa !9
  %97 = zext i32 %96 to i64
  %98 = getelementptr inbounds nuw i8, ptr %95, i64 %97
  %99 = load i8, ptr %98, align 1, !tbaa !3
  %100 = sext i8 %99 to i32
  %101 = icmp eq i32 %100, 124
  br i1 %101, label %102, label %103

102:                                              ; preds = %94, %86
  store i1 true, ptr %2, align 1
  store i32 1, ptr %6, align 4
  br label %108

103:                                              ; preds = %94
  br label %104

104:                                              ; preds = %103, %83
  br label %105

105:                                              ; preds = %104
  %106 = load i32, ptr %5, align 4, !tbaa !9
  %107 = add i32 %106, 1
  store i32 %107, ptr %5, align 4, !tbaa !9
  br label %46, !llvm.loop !11

108:                                              ; preds = %102, %51
  call void @llvm.lifetime.end.p0(i64 4, ptr %5) #3
  %109 = load i32, ptr %6, align 4
  switch i32 %109, label %132 [
    i32 2, label %110
  ]

110:                                              ; preds = %108
  store i1 false, ptr %2, align 1
  store i32 1, ptr %6, align 4
  br label %132

111:                                              ; preds = %36, %30, %24
  call void @llvm.lifetime.start.p0(i64 4, ptr %7) #3
  store i32 0, ptr %7, align 4, !tbaa !9
  br label %112

112:                                              ; preds = %126, %111
  %113 = load i32, ptr %7, align 4, !tbaa !9
  %114 = load i32, ptr %4, align 4, !tbaa !9
  %115 = icmp ult i32 %113, %114
  br i1 %115, label %117, label %116

116:                                              ; preds = %112
  store i32 5, ptr %6, align 4
  br label %129

117:                                              ; preds = %112
  %118 = load ptr, ptr %3, align 8, !tbaa !6
  %119 = load i32, ptr %7, align 4, !tbaa !9
  %120 = zext i32 %119 to i64
  %121 = getelementptr inbounds nuw i8, ptr %118, i64 %120
  %122 = load i8, ptr %121, align 1, !tbaa !3
  %123 = call noundef zeroext i1 @_Z26is_smt2_simple_symbol_charc(i8 noundef signext %122)
  br i1 %123, label %125, label %124

124:                                              ; preds = %117
  store i1 true, ptr %2, align 1
  store i32 1, ptr %6, align 4
  br label %129

125:                                              ; preds = %117
  br label %126

126:                                              ; preds = %125
  %127 = load i32, ptr %7, align 4, !tbaa !9
  %128 = add i32 %127, 1
  store i32 %128, ptr %7, align 4, !tbaa !9
  br label %112, !llvm.loop !13

129:                                              ; preds = %124, %116
  call void @llvm.lifetime.end.p0(i64 4, ptr %7) #3
  %130 = load i32, ptr %6, align 4
  switch i32 %130, label %132 [
    i32 5, label %131
  ]

131:                                              ; preds = %129
  store i1 false, ptr %2, align 1
  store i32 1, ptr %6, align 4
  br label %132

132:                                              ; preds = %131, %129, %110, %108
  call void @llvm.lifetime.end.p0(i64 4, ptr %4) #3
  br label %133

133:                                              ; preds = %132, %23, %10
  %134 = load i1, ptr %2, align 1
  ret i1 %134
}