; Function Attrs: mustprogress nofree nounwind willreturn memory(argmem: read) uwtable
define hidden noundef zeroext i1 @_Z21is_smt2_quoted_symbolPKc(ptr noundef readonly captures(address_is_null) %0) local_unnamed_addr #4 {
  %2 = icmp eq ptr %0, null
  br i1 %2, label %.thread, label %3

3:                                                ; preds = %1
  %4 = load i8, ptr %0, align 1, !tbaa !3
  %5 = add i8 %4, -48
  %or.cond = icmp ult i8 %5, 10
  br i1 %or.cond, label %.thread, label %6

6:                                                ; preds = %3
  %7 = tail call i64 @strlen(ptr noundef nonnull dereferenceable(1) %0) #16
  %8 = trunc i64 %7 to i32
  %9 = icmp ugt i32 %8, 1
  %10 = icmp eq i8 %4, 124
  %or.cond47 = and i1 %10, %9
  br i1 %or.cond47, label %11, label %31

11:                                               ; preds = %6
  %12 = add i64 %7, 4294967295
  %13 = and i64 %12, 4294967295
  %14 = getelementptr inbounds nuw i8, ptr %0, i64 %13
  %15 = load i8, ptr %14, align 1, !tbaa !3
  %16 = icmp eq i8 %15, 124
  br i1 %16, label %.preheader, label %.lr.ph.preheader

.preheader:                                       ; preds = %11
  %.not4354 = icmp ugt i32 %8, 2
  br i1 %.not4354, label %.lr.ph56, label %.thread

.lr.ph56:                                         ; preds = %.preheader, %29
  %17 = phi i32 [ %.reass, %29 ], [ 2, %.preheader ]
  %.03355 = phi i32 [ %30, %29 ], [ 1, %.preheader ]
  %18 = zext i32 %.03355 to i64
  %19 = getelementptr inbounds nuw i8, ptr %0, i64 %18
  %20 = load i8, ptr %19, align 1, !tbaa !3
  %21 = icmp eq i8 %20, 92
  %22 = add i32 %.03355, 2
  %23 = icmp ult i32 %22, %8
  %or.cond45 = and i1 %23, %21
  br i1 %or.cond45, label %24, label %28

24:                                               ; preds = %.lr.ph56
  %25 = zext i32 %17 to i64
  %26 = getelementptr inbounds nuw i8, ptr %0, i64 %25
  %27 = load i8, ptr %26, align 1, !tbaa !3
  switch i8 %27, label %.thread [
    i8 92, label %29
    i8 124, label %29
  ]

28:                                               ; preds = %.lr.ph56
  switch i8 %20, label %29 [
    i8 92, label %.thread
    i8 124, label %.thread
  ]

29:                                               ; preds = %28, %24, %24
  %.134 = phi i32 [ %17, %24 ], [ %17, %24 ], [ %.03355, %28 ]
  %30 = add i32 %.134, 1
  %.reass = add i32 %.134, 2
  %.not43 = icmp ult i32 %.reass, %8
  br i1 %.not43, label %.lr.ph56, label %.thread, !llvm.loop !6

31:                                               ; preds = %6
  %.not50.not = icmp eq i32 %8, 0
  br i1 %.not50.not, label %.thread, label %.lr.ph.preheader

.lr.ph.preheader:                                 ; preds = %11, %31
  %wide.trip.count = and i64 %7, 4294967295
  br label %.lr.ph

.lr.ph:                                           ; preds = %.lr.ph, %.lr.ph.preheader
  %indvars.iv = phi i64 [ 0, %.lr.ph.preheader ], [ %indvars.iv.next, %.lr.ph ]
  %32 = getelementptr inbounds nuw i8, ptr %0, i64 %indvars.iv
  %33 = load i8, ptr %32, align 1, !tbaa !3
  %34 = tail call noundef zeroext i1 @_Z26is_smt2_simple_symbol_charc(i8 noundef signext %33)
  %indvars.iv.next = add nuw nsw i64 %indvars.iv, 1
  %exitcond.not = icmp ne i64 %indvars.iv.next, %wide.trip.count
  %or.cond69.not = select i1 %34, i1 %exitcond.not, i1 false
  br i1 %or.cond69.not, label %.lr.ph, label %.thread.loopexit64, !llvm.loop !8

.thread.loopexit64:                               ; preds = %.lr.ph
  %.035.ph65 = xor i1 %34, true
  br label %.thread

.thread:                                          ; preds = %28, %28, %29, %24, %.thread.loopexit64, %31, %.preheader, %3, %1
  %.035 = phi i1 [ false, %1 ], [ true, %3 ], [ false, %.preheader ], [ false, %31 ], [ %.035.ph65, %.thread.loopexit64 ], [ true, %28 ], [ true, %28 ], [ false, %29 ], [ true, %24 ]
  ret i1 %.035
}